target datalayout = "e-m:e-p270:32:32-p271:32:32-p272:64:64-i64:64-i128:128-f80:128-n8:16:32:64-S128"
target triple = "x86_64-pc-linux-gnu"

%struct.SurfaceDataRasInfo = type { %struct.SurfaceDataBounds, ptr, i32, i32, i32, i32, ptr, ptr, ptr, ptr, ptr, ptr, i32, %union.anon.0 }
%struct.SurfaceDataBounds = type { i32, i32, i32, i32 }
%union.anon.0 = type { ptr, [56 x i8] }

; Function Attrs: nounwind uwtable
define hidden void @AnyShortIsomorphicCopy(ptr noundef %0, ptr noundef %1, i32 noundef %2, i32 noundef %3, ptr noundef %4, ptr noundef %5, ptr noundef %6, ptr noundef %7) #0 {
  %9 = alloca ptr, align 8
  %10 = alloca ptr, align 8
  %11 = alloca i32, align 4
  %12 = alloca i32, align 4
  %13 = alloca ptr, align 8
  %14 = alloca ptr, align 8
  %15 = alloca ptr, align 8
  %16 = alloca ptr, align 8
  %17 = alloca ptr, align 8
  %18 = alloca ptr, align 8
  %19 = alloca i32, align 4
  %20 = alloca i32, align 4
  store ptr %0, ptr %9, align 8
  store ptr %1, ptr %10, align 8
  store i32 %2, ptr %11, align 4
  store i32 %3, ptr %12, align 4
  store ptr %4, ptr %13, align 8
  store ptr %5, ptr %14, align 8
  store ptr %6, ptr %15, align 8
  store ptr %7, ptr %16, align 8
  br label %21

21:                                               ; preds = %8
  %22 = load ptr, ptr %9, align 8
  store ptr %22, ptr %17, align 8
  %23 = load ptr, ptr %10, align 8
  store ptr %23, ptr %18, align 8
  %24 = load ptr, ptr %13, align 8
  %25 = getelementptr inbounds %struct.SurfaceDataRasInfo, ptr %24, i32 0, i32 4
  %26 = load i32, ptr %25, align 8
  store i32 %26, ptr %19, align 4
  %27 = load ptr, ptr %14, align 8
  %28 = getelementptr inbounds %struct.SurfaceDataRasInfo, ptr %27, i32 0, i32 4
  %29 = load i32, ptr %28, align 8
  store i32 %29, ptr %20, align 4
  br label %30

30:                                               ; preds = %48, %21
  %31 = load ptr, ptr %18, align 8
  %32 = load ptr, ptr %17, align 8
  %33 = load i32, ptr %11, align 4
  %34 = mul i32 %33, 2
  %35 = zext i32 %34 to i64
  call void @llvm.memcpy.p0.p0.i64(ptr align 2 %31, ptr align 2 %32, i64 %35, i1 false)
  %36 = load ptr, ptr %17, align 8
  %37 = ptrtoint ptr %36 to i64
  %38 = load i32, ptr %19, align 4
  %39 = sext i32 %38 to i64
  %40 = add nsw i64 %37, %39
  %41 = inttoptr i64 %40 to ptr
  store ptr %41, ptr %17, align 8
  %42 = load ptr, ptr %18, align 8
  %43 = ptrtoint ptr %42 to i64
  %44 = load i32, ptr %20, align 4
  %45 = sext i32 %44 to i64
  %46 = add nsw i64 %43, %45
  %47 = inttoptr i64 %46 to ptr
  store ptr %47, ptr %18, align 8
  br label %48

48:                                               ; preds = %30
  %49 = load i32, ptr %12, align 4
  %50 = add i32 %49, -1
  store i32 %50, ptr %12, align 4
  %51 = icmp ugt i32 %50, 0
  br i1 %51, label %30, label %52, !llvm.loop !29

52:                                               ; preds = %48
  br label %53

53:                                               ; preds = %52
  ret void
}