; Function Attrs: nofree norecurse nosync nounwind memory(readwrite, inaccessiblemem: none) uwtable
define hidden void @AnyShortIsomorphicCopy(ptr noundef %0, ptr noundef %1, i32 noundef %2, i32 noundef %3, ptr nocapture noundef readonly %4, ptr nocapture noundef readonly %5, ptr nocapture noundef readnone %6, ptr nocapture noundef readnone %7) local_unnamed_addr #2 {
  %9 = getelementptr inbounds i8, ptr %4, i64 32
  %10 = load i32, ptr %9, align 8
  %11 = getelementptr inbounds i8, ptr %5, i64 32
  %12 = load i32, ptr %11, align 8
  %13 = shl i32 %2, 1
  %14 = zext i32 %13 to i64
  %15 = sext i32 %10 to i64
  %16 = sext i32 %12 to i64
  br label %17

17:                                               ; preds = %17, %8
  %.012 = phi ptr [ %1, %8 ], [ %23, %17 ]
  %.011 = phi ptr [ %0, %8 ], [ %20, %17 ]
  %.0 = phi i32 [ %3, %8 ], [ %24, %17 ]
  tail call void @llvm.memcpy.p0.p0.i64(ptr align 2 %.012, ptr align 2 %.011, i64 %14, i1 false)
  %18 = ptrtoint ptr %.011 to i64
  %19 = add nsw i64 %18, %15
  %20 = inttoptr i64 %19 to ptr
  %21 = ptrtoint ptr %.012 to i64
  %22 = add nsw i64 %21, %16
  %23 = inttoptr i64 %22 to ptr
  %24 = add i32 %.0, -1
  %.not = icmp eq i32 %24, 0
  br i1 %.not, label %25, label %17, !llvm.loop !29

25:                                               ; preds = %17
  ret void
}